Certificate:
    Data:
        Version: 3 (0x2)
        Serial Number:
            93:8d:71:23:c7:14:9b:cd
    Signature Algorithm: sha256WithRSAEncryption
        Issuer: C=US, ST=OH, O=OSUOSC, CN=ldapmstin01bato.adm.opensource.osu.edu/emailAddress=opensource-announce@cse.ohio-state.edu
        Validity
            Not Before: Feb  1 02:54:14 2018 GMT
            Not After : Jan 31 02:54:14 2021 GMT
        Subject: C=US, ST=OH, O=OSUOSC, CN=ldapmstin01bato.adm.opensource.osu.edu/emailAddress=opensource-announce@cse.ohio-state.edu
        Subject Public Key Info:
            Public Key Algorithm: rsaEncryption
                Public-Key: (2048 bit)
                Modulus:
                    00:b1:49:1a:03:62:ba:eb:73:be:0f:44:6c:d2:1a:
                    86:44:14:0d:fd:d7:21:17:3c:2a:4f:9a:c1:65:f5:
                    f0:ca:3d:18:fb:da:f3:1b:3c:00:93:b2:c7:c0:c1:
                    2d:3c:ff:ff:65:56:f9:8a:01:44:ef:b2:98:16:3a:
                    e1:4c:1a:e8:7f:7b:49:60:a9:ed:04:30:67:58:70:
                    42:6f:50:5e:0b:da:8b:d0:c7:d8:e7:5d:f6:69:67:
                    34:0a:1b:b2:8a:e9:f7:4d:81:77:d3:27:c4:f1:5e:
                    0b:9b:70:4c:39:62:53:da:a6:97:7c:14:1c:3b:c8:
                    71:33:df:d2:fe:c0:1d:0a:84:37:bd:14:f1:8b:37:
                    d0:b8:ed:ad:0c:02:0f:9f:60:07:57:15:4d:f3:f4:
                    8a:8a:7d:4f:67:e8:b3:ad:74:30:79:6d:37:a3:f9:
                    55:d4:f6:c6:b1:1b:16:59:16:3f:1e:c7:9c:da:59:
                    38:89:2e:60:8b:4e:b9:11:6b:d9:31:da:24:bf:89:
                    ff:07:3c:97:09:57:97:d9:db:1c:79:2f:27:37:e4:
                    a4:ac:c0:0e:26:af:fd:13:83:2f:49:4c:4a:85:bd:
                    63:06:a3:05:8b:59:6e:7d:fb:90:42:e0:92:4b:a9:
                    0a:7a:2a:0b:3a:ff:f2:66:97:2e:f2:78:dc:4b:30:
                    ca:59
                Exponent: 65537 (0x10001)
        X509v3 extensions:
            X509v3 Subject Key Identifier:
                88:97:26:41:84:CA:F8:FD:5D:20:DD:65:35:A9:F4:F3:43:60:35:5B
            X509v3 Authority Key Identifier:
                keyid:88:97:26:41:84:CA:F8:FD:5D:20:DD:65:35:A9:F4:F3:43:60:35:5B

            X509v3 Basic Constraints:
                CA:TRUE
    Signature Algorithm: sha256WithRSAEncryption
         61:08:8a:e1:39:7c:13:51:66:0b:b4:cd:80:be:53:28:50:f0:
         10:e2:b8:0a:d0:1e:ee:ad:f8:7f:31:4d:6e:e2:c1:7c:96:ce:
         68:36:db:52:a0:99:c5:21:41:9e:d1:4f:2a:24:ff:5a:35:d7:
         8c:26:fa:8c:fc:82:04:29:68:19:41:b7:34:d5:d2:f3:e4:ca:
         6f:e3:78:a2:37:bb:94:f1:e7:ee:78:3d:b4:3a:e1:80:69:b2:
         a1:dd:a7:17:f8:db:26:d5:e8:2e:e5:ad:9d:60:3b:7e:6e:bc:
         5a:4a:87:52:a6:38:c7:ad:84:4c:d0:e9:51:b3:6c:05:c7:61:
         9a:1e:9a:0c:a6:1d:61:8a:05:24:4a:18:ad:20:41:42:b1:d0:
         aa:28:46:db:b7:e3:44:fc:ba:16:39:71:02:ab:10:ad:68:d4:
         3a:29:00:df:7d:6c:23:d4:4b:c3:08:f0:2f:0e:64:73:60:2e:
         76:61:4f:f6:e9:7f:62:52:ee:84:fd:6a:60:23:21:78:6d:06:
         fe:25:f1:08:3e:e7:cb:8b:35:a9:e4:33:3c:d4:35:4f:99:91:
         f9:64:ed:6c:04:4f:8c:d6:03:88:a3:f5:a8:7b:64:23:19:55:
         b5:93:3a:e2:4a:52:41:b0:5c:9b:c0:34:f3:53:be:29:e5:bb:
         8b:92:35:78
-----BEGIN CERTIFICATE-----
MIID+zCCAuOgAwIBAgIJAJONcSPHFJvNMA0GCSqGSIb3DQEBCwUAMIGTMQswCQYD
VQQGEwJVUzELMAkGA1UECAwCT0gxDzANBgNVBAoMBk9TVU9TQzEvMC0GA1UEAwwm
bGRhcG1zdGluMDFiYXRvLmFkbS5vcGVuc291cmNlLm9zdS5lZHUxNTAzBgkqhkiG
9w0BCQEWJm9wZW5zb3VyY2UtYW5ub3VuY2VAY3NlLm9oaW8tc3RhdGUuZWR1MB4X
DTE4MDIwMTAyNTQxNFoXDTIxMDEzMTAyNTQxNFowgZMxCzAJBgNVBAYTAlVTMQsw
CQYDVQQIDAJPSDEPMA0GA1UECgwGT1NVT1NDMS8wLQYDVQQDDCZsZGFwbXN0aW4w
MWJhdG8uYWRtLm9wZW5zb3VyY2Uub3N1LmVkdTE1MDMGCSqGSIb3DQEJARYmb3Bl
bnNvdXJjZS1hbm5vdW5jZUBjc2Uub2hpby1zdGF0ZS5lZHUwggEiMA0GCSqGSIb3
DQEBAQUAA4IBDwAwggEKAoIBAQCxSRoDYrrrc74PRGzSGoZEFA391yEXPCpPmsFl
9fDKPRj72vMbPACTssfAwS08//9lVvmKAUTvspgWOuFMGuh/e0lgqe0EMGdYcEJv
UF4L2ovQx9jnXfZpZzQKG7KK6fdNgXfTJ8TxXgubcEw5YlPappd8FBw7yHEz39L+
wB0KhDe9FPGLN9C47a0MAg+fYAdXFU3z9IqKfU9n6LOtdDB5bTej+VXU9saxGxZZ
Fj8ex5zaWTiJLmCLTrkRa9kx2iS/if8HPJcJV5fZ2xx5Lyc35KSswA4mr/0Tgy9J
TEqFvWMGowWLWW59+5BC4JJLqQp6Kgs6//Jmly7yeNxLMMpZAgMBAAGjUDBOMB0G
A1UdDgQWBBSIlyZBhMr4/V0g3WU1qfTzQ2A1WzAfBgNVHSMEGDAWgBSIlyZBhMr4
/V0g3WU1qfTzQ2A1WzAMBgNVHRMEBTADAQH/MA0GCSqGSIb3DQEBCwUAA4IBAQBh
CIrhOXwTUWYLtM2AvlMoUPAQ4rgK0B7urfh/MU1u4sF8ls5oNttSoJnFIUGe0U8q
JP9aNdeMJvqM/IIEKWgZQbc01dLz5Mpv43iiN7uU8efueD20OuGAabKh3acX+Nsm
1egu5a2dYDt+brxaSodSpjjHrYRM0OlRs2wFx2GaHpoMph1higUkShitIEFCsdCq
KEbbt+NE/LoWOXECqxCtaNQ6KQDffWwj1EvDCPAvDmRzYC52YU/26X9iUu6E/Wpg
IyF4bQb+JfEIPufLizWp5DM81DVPmZH5ZO1sBE+M1gOIo/Woe2QjGVW1kzriSlJB
sFybwDTzU74p5buLkjV4
-----END CERTIFICATE-----
